; Function Attrs: mustprogress uwtable
define noundef zeroext i1 @_ZNK5Ipopt17MultiVectorMatrix19HasValidNumbersImplEv(ptr noundef nonnull readonly align 8 captures(none) dereferenceable(128) %0) unnamed_addr #4 align 2 {
  %2 = getelementptr inbounds nuw i8, ptr %0, i64 56
  %3 = load ptr, ptr %2, align 8, !tbaa !21
  %4 = getelementptr inbounds nuw i8, ptr %3, i64 16
  %5 = load i32, ptr %4, align 8, !tbaa !52
  %6 = icmp slt i32 %5, 1
  br i1 %6, label %._crit_edge.i._crit_edge, label %.lr.ph

.lr.ph:                                           ; preds = %1
  %7 = getelementptr inbounds nuw i8, ptr %0, i64 104
  %8 = getelementptr inbounds nuw i8, ptr %0, i64 80
  br label %9

9:                                                ; preds = %.lr.ph, %30
  %10 = phi ptr [ %3, %.lr.ph ], [ %31, %30 ]
  %indvars.iv = phi i64 [ 0, %.lr.ph ], [ %indvars.iv.next, %30 ]
  %11 = load ptr, ptr %7, align 8, !tbaa !24
  %12 = getelementptr inbounds nuw %"class.Ipopt::SmartPtr.11", ptr %11, i64 %indvars.iv
  %13 = load ptr, ptr %12, align 8, !tbaa !28
  %.not.i = icmp eq ptr %13, null
  br i1 %.not.i, label %14, label %_ZNK5Ipopt17MultiVectorMatrix8ConstVecEi.exit

14:                                               ; preds = %9
  %15 = load ptr, ptr %8, align 8, !tbaa !3
  %16 = getelementptr inbounds nuw %"class.Ipopt::SmartPtr.12", ptr %15, i64 %indvars.iv
  %17 = load ptr, ptr %16, align 8, !tbaa !10
  br label %_ZNK5Ipopt17MultiVectorMatrix8ConstVecEi.exit

_ZNK5Ipopt17MultiVectorMatrix8ConstVecEi.exit:    ; preds = %9, %14
  %.0.i = phi ptr [ %17, %14 ], [ %13, %9 ]
  %18 = getelementptr inbounds nuw i8, ptr %.0.i, i64 200
  %19 = load i32, ptr %18, align 8, !tbaa !111
  %20 = getelementptr inbounds nuw i8, ptr %.0.i, i64 48
  %21 = load i32, ptr %20, align 8, !tbaa !76
  %.not.i7 = icmp eq i32 %19, %21
  br i1 %.not.i7, label %._crit_edge.i, label %_ZNK5Ipopt6Vector15HasValidNumbersEv.exit

._crit_edge.i:                                    ; preds = %_ZNK5Ipopt17MultiVectorMatrix8ConstVecEi.exit
  %.phi.trans.insert.i = getelementptr inbounds nuw i8, ptr %.0.i, i64 204
  %.pre.i = load i8, ptr %.phi.trans.insert.i, align 4, !tbaa !112, !range !64
  %22 = trunc nuw i8 %.pre.i to i1
  br i1 %22, label %30, label %._crit_edge.i._crit_edge

_ZNK5Ipopt6Vector15HasValidNumbersEv.exit:        ; preds = %_ZNK5Ipopt17MultiVectorMatrix8ConstVecEi.exit
  %23 = load ptr, ptr %.0.i, align 8, !tbaa !16
  %24 = getelementptr inbounds nuw i8, ptr %23, i64 216
  %25 = load ptr, ptr %24, align 8
  %26 = tail call noundef zeroext i1 %25(ptr noundef nonnull align 8 dereferenceable(205) %.0.i)
  %27 = getelementptr inbounds nuw i8, ptr %.0.i, i64 204
  %28 = zext i1 %26 to i8
  store i8 %28, ptr %27, align 4, !tbaa !112
  %29 = load i32, ptr %20, align 8, !tbaa !76
  store i32 %29, ptr %18, align 8, !tbaa !111
  br i1 %26, label %_ZNK5Ipopt6Vector15HasValidNumbersEv.exit._crit_edge, label %._crit_edge.i._crit_edge

_ZNK5Ipopt6Vector15HasValidNumbersEv.exit._crit_edge: ; preds = %_ZNK5Ipopt6Vector15HasValidNumbersEv.exit
  %.pre = load ptr, ptr %2, align 8, !tbaa !21
  br label %30

30:                                               ; preds = %_ZNK5Ipopt6Vector15HasValidNumbersEv.exit._crit_edge, %._crit_edge.i
  %31 = phi ptr [ %.pre, %_ZNK5Ipopt6Vector15HasValidNumbersEv.exit._crit_edge ], [ %10, %._crit_edge.i ]
  %indvars.iv.next = add nuw nsw i64 %indvars.iv, 1
  %32 = getelementptr inbounds nuw i8, ptr %31, i64 16
  %33 = load i32, ptr %32, align 8, !tbaa !52
  %34 = sext i32 %33 to i64
  %.not = icmp slt i64 %indvars.iv.next, %34
  br i1 %.not, label %9, label %._crit_edge.i._crit_edge, !llvm.loop !113

._crit_edge.i._crit_edge:                         ; preds = %30, %_ZNK5Ipopt6Vector15HasValidNumbersEv.exit, %._crit_edge.i, %1
  %.lcssa = phi i1 [ true, %1 ], [ false, %._crit_edge.i ], [ false, %_ZNK5Ipopt6Vector15HasValidNumbersEv.exit ], [ true, %30 ]
  ret i1 %.lcssa
}